; Function Attrs: mustprogress nofree norecurse nounwind willreturn memory(argmem: read) uwtable
define zeroext i1 @lean_string_lt(ptr noundef readonly captures(none) %0, ptr noundef readonly captures(none) %1) local_unnamed_addr #26 {
  %3 = getelementptr i8, ptr %0, i64 8
  %.val5 = load i64, ptr %3, align 8, !tbaa !30
  %4 = add i64 %.val5, -1
  %5 = getelementptr i8, ptr %1, i64 8
  %.val = load i64, ptr %5, align 8, !tbaa !30
  %6 = add i64 %.val, -1
  %7 = getelementptr inbounds nuw i8, ptr %0, i64 32
  %8 = getelementptr inbounds nuw i8, ptr %1, i64 32
  %.sroa.speculated = tail call i64 @llvm.umin.i64(i64 %6, i64 %4)
  %9 = tail call i32 @memcmp(ptr noundef nonnull %7, ptr noundef nonnull %8, i64 noundef %.sroa.speculated) #44
  %10 = icmp slt i32 %9, 0
  br i1 %10, label %15, label %11

11:                                               ; preds = %2
  %12 = icmp eq i32 %9, 0
  %13 = icmp ult i64 %4, %6
  %14 = and i1 %12, %13
  br label %15

15:                                               ; preds = %11, %2
  %16 = phi i1 [ true, %2 ], [ %14, %11 ]
  ret i1 %16
}